target datalayout = "e-m:e-p270:32:32-p271:32:32-p272:64:64-i64:64-i128:128-f80:128-n8:16:32:64-S128"
target triple = "x86_64-pc-linux-gnu"

%struct.GetBitContext = type { ptr, ptr, i32, i32, i32 }
%struct.MV = type { i16, i16 }

@ff_interleaved_golomb_vlc_len = external constant [256 x i8], align 16
@ff_interleaved_se_golomb_vlc_code = external constant [256 x i8], align 16

; Function Attrs: alwaysinline nounwind willreturn memory(none) uwtable
define internal i32 @av_bswap32(i32 noundef %0) #7 {
  %2 = alloca i32, align 4
  store i32 %0, ptr %2, align 4, !tbaa !36
  %3 = load i32, ptr %2, align 4, !tbaa !36
  %4 = shl i32 %3, 8
  %5 = and i32 %4, 65280
  %6 = load i32, ptr %2, align 4, !tbaa !36
  %7 = lshr i32 %6, 8
  %8 = and i32 %7, 255
  %9 = or i32 %5, %8
  %10 = shl i32 %9, 16
  %11 = load i32, ptr %2, align 4, !tbaa !36
  %12 = lshr i32 %11, 16
  %13 = shl i32 %12, 8
  %14 = and i32 %13, 65280
  %15 = load i32, ptr %2, align 4, !tbaa !36
  %16 = lshr i32 %15, 16
  %17 = lshr i32 %16, 8
  %18 = and i32 %17, 255
  %19 = or i32 %14, %18
  %20 = or i32 %10, %19
  ret i32 %20
}

; Function Attrs: inlinehint nounwind uwtable
define internal i32 @get_interleaved_se_golomb(ptr noundef %0) #6 {
  %2 = alloca i32, align 4
  %3 = alloca ptr, align 8
  %4 = alloca i32, align 4
  %5 = alloca i32, align 4
  %6 = alloca i32, align 4
  %7 = alloca i32, align 4
  %8 = alloca i32, align 4
  %9 = alloca i32, align 4
  store ptr %0, ptr %3, align 8, !tbaa !92
  call void @llvm.lifetime.start.p0(i64 4, ptr %4) #11
  call void @llvm.lifetime.start.p0(i64 4, ptr %5) #11
  %10 = load ptr, ptr %3, align 8, !tbaa !92
  %11 = getelementptr inbounds nuw %struct.GetBitContext, ptr %10, i32 0, i32 2
  %12 = load i32, ptr %11, align 8, !tbaa !124
  store i32 %12, ptr %5, align 4, !tbaa !36
  call void @llvm.lifetime.start.p0(i64 4, ptr %6) #11
  call void @llvm.lifetime.start.p0(i64 4, ptr %7) #11
  %13 = load ptr, ptr %3, align 8, !tbaa !92
  %14 = getelementptr inbounds nuw %struct.GetBitContext, ptr %13, i32 0, i32 4
  %15 = load i32, ptr %14, align 8, !tbaa !134
  store i32 %15, ptr %7, align 4, !tbaa !36
  %16 = load ptr, ptr %3, align 8, !tbaa !92
  %17 = getelementptr inbounds nuw %struct.GetBitContext, ptr %16, i32 0, i32 0
  %18 = load ptr, ptr %17, align 8, !tbaa !132
  %19 = load i32, ptr %5, align 4, !tbaa !36
  %20 = lshr i32 %19, 3
  %21 = zext i32 %20 to i64
  %22 = getelementptr inbounds nuw i8, ptr %18, i64 %21
  %23 = load i32, ptr %22, align 1, !tbaa !48
  %24 = call i32 @av_bswap32(i32 noundef %23) #12
  %25 = load i32, ptr %5, align 4, !tbaa !36
  %26 = and i32 %25, 7
  %27 = shl i32 %24, %26
  %28 = lshr i32 %27, 0
  store i32 %28, ptr %6, align 4, !tbaa !36
  %29 = load i32, ptr %6, align 4, !tbaa !36
  store i32 %29, ptr %4, align 4, !tbaa !36
  %30 = load i32, ptr %4, align 4, !tbaa !36
  %31 = and i32 %30, -1434451968
  %32 = icmp ne i32 %31, 0
  br i1 %32, label %33, label %65

33:                                               ; preds = %1
  %34 = load i32, ptr %4, align 4, !tbaa !36
  %35 = lshr i32 %34, 24
  store i32 %35, ptr %4, align 4, !tbaa !36
  %36 = load i32, ptr %7, align 4, !tbaa !36
  %37 = load i32, ptr %5, align 4, !tbaa !36
  %38 = load i32, ptr %4, align 4, !tbaa !36
  %39 = zext i32 %38 to i64
  %40 = getelementptr inbounds nuw [256 x i8], ptr @ff_interleaved_golomb_vlc_len, i64 0, i64 %39
  %41 = load i8, ptr %40, align 1, !tbaa !48
  %42 = zext i8 %41 to i32
  %43 = add i32 %37, %42
  %44 = icmp ugt i32 %36, %43
  br i1 %44, label %45, label %53

45:                                               ; preds = %33
  %46 = load i32, ptr %5, align 4, !tbaa !36
  %47 = load i32, ptr %4, align 4, !tbaa !36
  %48 = zext i32 %47 to i64
  %49 = getelementptr inbounds nuw [256 x i8], ptr @ff_interleaved_golomb_vlc_len, i64 0, i64 %48
  %50 = load i8, ptr %49, align 1, !tbaa !48
  %51 = zext i8 %50 to i32
  %52 = add i32 %46, %51
  br label %55

53:                                               ; preds = %33
  %54 = load i32, ptr %7, align 4, !tbaa !36
  br label %55

55:                                               ; preds = %53, %45
  %56 = phi i32 [ %52, %45 ], [ %54, %53 ]
  store i32 %56, ptr %5, align 4, !tbaa !36
  %57 = load i32, ptr %5, align 4, !tbaa !36
  %58 = load ptr, ptr %3, align 8, !tbaa !92
  %59 = getelementptr inbounds nuw %struct.GetBitContext, ptr %58, i32 0, i32 2
  store i32 %57, ptr %59, align 8, !tbaa !124
  %60 = load i32, ptr %4, align 4, !tbaa !36
  %61 = zext i32 %60 to i64
  %62 = getelementptr inbounds nuw [256 x i8], ptr @ff_interleaved_se_golomb_vlc_code, i64 0, i64 %61
  %63 = load i8, ptr %62, align 1, !tbaa !48
  %64 = sext i8 %63 to i32
  store i32 %64, ptr %2, align 4
  store i32 1, ptr %8, align 4
  br label %156

65:                                               ; preds = %1
  call void @llvm.lifetime.start.p0(i64 4, ptr %9) #11
  %66 = load i32, ptr %7, align 4, !tbaa !36
  %67 = load i32, ptr %5, align 4, !tbaa !36
  %68 = add i32 %67, 8
  %69 = icmp ugt i32 %66, %68
  br i1 %69, label %70, label %73

70:                                               ; preds = %65
  %71 = load i32, ptr %5, align 4, !tbaa !36
  %72 = add i32 %71, 8
  br label %75

73:                                               ; preds = %65
  %74 = load i32, ptr %7, align 4, !tbaa !36
  br label %75

75:                                               ; preds = %73, %70
  %76 = phi i32 [ %72, %70 ], [ %74, %73 ]
  store i32 %76, ptr %5, align 4, !tbaa !36
  %77 = load ptr, ptr %3, align 8, !tbaa !92
  %78 = getelementptr inbounds nuw %struct.GetBitContext, ptr %77, i32 0, i32 0
  %79 = load ptr, ptr %78, align 8, !tbaa !132
  %80 = load i32, ptr %5, align 4, !tbaa !36
  %81 = lshr i32 %80, 3
  %82 = zext i32 %81 to i64
  %83 = getelementptr inbounds nuw i8, ptr %79, i64 %82
  %84 = load i32, ptr %83, align 1, !tbaa !48
  %85 = call i32 @av_bswap32(i32 noundef %84) #12
  %86 = load i32, ptr %5, align 4, !tbaa !36
  %87 = and i32 %86, 7
  %88 = shl i32 %85, %87
  %89 = lshr i32 %88, 0
  store i32 %89, ptr %6, align 4, !tbaa !36
  %90 = load i32, ptr %6, align 4, !tbaa !36
  %91 = lshr i32 %90, 8
  %92 = or i32 1, %91
  %93 = load i32, ptr %4, align 4, !tbaa !36
  %94 = or i32 %93, %92
  store i32 %94, ptr %4, align 4, !tbaa !36
  %95 = load i32, ptr %4, align 4, !tbaa !36
  %96 = and i32 %95, -1431655766
  %97 = icmp eq i32 %96, 0
  br i1 %97, label %98, label %99

98:                                               ; preds = %75
  store i32 -2147483648, ptr %2, align 4
  store i32 1, ptr %8, align 4
  br label %155

99:                                               ; preds = %75
  store i32 31, ptr %9, align 4, !tbaa !36
  br label %100

100:                                              ; preds = %117, %99
  %101 = load i32, ptr %4, align 4, !tbaa !36
  %102 = and i32 %101, -2147483648
  %103 = icmp eq i32 %102, 0
  br i1 %103, label %104, label %120

104:                                              ; preds = %100
  %105 = load i32, ptr %4, align 4, !tbaa !36
  %106 = shl i32 %105, 2
  %107 = load i32, ptr %4, align 4, !tbaa !36
  %108 = load i32, ptr %9, align 4, !tbaa !36
  %109 = shl i32 %107, %108
  %110 = load i32, ptr %9, align 4, !tbaa !36
  %111 = sub nsw i32 %110, 1
  %112 = lshr i32 %109, %111
  %113 = sub i32 %106, %112
  %114 = load i32, ptr %4, align 4, !tbaa !36
  %115 = lshr i32 %114, 30
  %116 = add i32 %113, %115
  store i32 %116, ptr %4, align 4, !tbaa !36
  br label %117

117:                                              ; preds = %104
  %118 = load i32, ptr %9, align 4, !tbaa !36
  %119 = add nsw i32 %118, -1
  store i32 %119, ptr %9, align 4, !tbaa !36
  br label %100, !llvm.loop !212

120:                                              ; preds = %100
  %121 = load i32, ptr %7, align 4, !tbaa !36
  %122 = load i32, ptr %5, align 4, !tbaa !36
  %123 = load i32, ptr %9, align 4, !tbaa !36
  %124 = mul nsw i32 2, %123
  %125 = sub nsw i32 63, %124
  %126 = sub nsw i32 %125, 8
  %127 = add i32 %122, %126
  %128 = icmp ugt i32 %121, %127
  br i1 %128, label %129, label %136

129:                                              ; preds = %120
  %130 = load i32, ptr %5, align 4, !tbaa !36
  %131 = load i32, ptr %9, align 4, !tbaa !36
  %132 = mul nsw i32 2, %131
  %133 = sub nsw i32 63, %132
  %134 = sub nsw i32 %133, 8
  %135 = add i32 %130, %134
  br label %138

136:                                              ; preds = %120
  %137 = load i32, ptr %7, align 4, !tbaa !36
  br label %138

138:                                              ; preds = %136, %129
  %139 = phi i32 [ %135, %129 ], [ %137, %136 ]
  store i32 %139, ptr %5, align 4, !tbaa !36
  %140 = load i32, ptr %5, align 4, !tbaa !36
  %141 = load ptr, ptr %3, align 8, !tbaa !92
  %142 = getelementptr inbounds nuw %struct.GetBitContext, ptr %141, i32 0, i32 2
  store i32 %140, ptr %142, align 8, !tbaa !124
  %143 = load i32, ptr %4, align 4, !tbaa !36
  %144 = load i32, ptr %9, align 4, !tbaa !36
  %145 = shl i32 %143, %144
  %146 = load i32, ptr %9, align 4, !tbaa !36
  %147 = lshr i32 %145, %146
  %148 = sub i32 %147, 1
  %149 = load i32, ptr %4, align 4, !tbaa !36
  %150 = and i32 %149, 1
  %151 = sub i32 0, %150
  %152 = xor i32 %148, %151
  %153 = add i32 %152, 1
  %154 = ashr i32 %153, 1
  store i32 %154, ptr %2, align 4
  store i32 1, ptr %8, align 4
  br label %155

155:                                              ; preds = %138, %98
  call void @llvm.lifetime.end.p0(i64 4, ptr %9) #11
  br label %156

156:                                              ; preds = %155, %55
  call void @llvm.lifetime.end.p0(i64 4, ptr %7) #11
  call void @llvm.lifetime.end.p0(i64 4, ptr %6) #11
  call void @llvm.lifetime.end.p0(i64 4, ptr %5) #11
  call void @llvm.lifetime.end.p0(i64 4, ptr %4) #11
  %157 = load i32, ptr %2, align 4
  ret i32 %157
}

; Function Attrs: nounwind uwtable
define internal void @read_mv(ptr noundef %0, ptr noundef %1) #1 {
  %3 = alloca ptr, align 8
  %4 = alloca ptr, align 8
  store ptr %0, ptr %3, align 8, !tbaa !92
  store ptr %1, ptr %4, align 8, !tbaa !87
  %5 = load ptr, ptr %3, align 8, !tbaa !92
  %6 = call i32 @get_interleaved_se_golomb(ptr noundef %5)
  %7 = trunc i32 %6 to i16
  %8 = load ptr, ptr %4, align 8, !tbaa !87
  %9 = getelementptr inbounds nuw %struct.MV, ptr %8, i32 0, i32 0
  store i16 %7, ptr %9, align 2, !tbaa !199
  %10 = load ptr, ptr %3, align 8, !tbaa !92
  %11 = call i32 @get_interleaved_se_golomb(ptr noundef %10)
  %12 = trunc i32 %11 to i16
  %13 = load ptr, ptr %4, align 8, !tbaa !87
  %14 = getelementptr inbounds nuw %struct.MV, ptr %13, i32 0, i32 1
  store i16 %12, ptr %14, align 2, !tbaa !200
  ret void
}