; Function Attrs: nofree norecurse nosync nounwind memory(read, argmem: readwrite, inaccessiblemem: none) uwtable
define internal fastcc void @read_mv(ptr noundef nonnull captures(none) %0, ptr noundef nonnull writeonly captures(none) %1) unnamed_addr #11 {
  %3 = getelementptr inbounds nuw i8, ptr %0, i64 16
  %4 = load i32, ptr %3, align 8, !tbaa !51
  %5 = getelementptr inbounds nuw i8, ptr %0, i64 24
  %6 = load i32, ptr %5, align 8, !tbaa !46
  %7 = load ptr, ptr %0, align 8, !tbaa !43
  %8 = lshr i32 %4, 3
  %9 = zext nneg i32 %8 to i64
  %10 = getelementptr inbounds nuw i8, ptr %7, i64 %9
  %11 = load i32, ptr %10, align 1, !tbaa !42
  %12 = tail call i32 @llvm.bswap.i32(i32 %11)
  %13 = and i32 %4, 7
  %14 = shl i32 %12, %13
  %15 = and i32 %14, -1434451968
  %.not.i = icmp eq i32 %15, 0
  br i1 %.not.i, label %26, label %16

16:                                               ; preds = %2
  %17 = lshr i32 %14, 24
  %18 = zext nneg i32 %17 to i64
  %19 = getelementptr inbounds nuw [256 x i8], ptr @ff_interleaved_golomb_vlc_len, i64 0, i64 %18
  %20 = load i8, ptr %19, align 1, !tbaa !42
  %21 = zext i8 %20 to i32
  %22 = add i32 %4, %21
  %..i = tail call i32 @llvm.umin.i32(i32 %6, i32 %22)
  store i32 %..i, ptr %3, align 8, !tbaa !51
  %23 = getelementptr inbounds nuw [256 x i8], ptr @ff_interleaved_se_golomb_vlc_code, i64 0, i64 %18
  %24 = load i8, ptr %23, align 1, !tbaa !42
  %25 = sext i8 %24 to i32
  br label %get_interleaved_se_golomb.exit

26:                                               ; preds = %2
  %27 = add i32 %4, 8
  %28 = tail call i32 @llvm.umin.i32(i32 %6, i32 %27)
  %29 = lshr i32 %28, 3
  %30 = zext nneg i32 %29 to i64
  %31 = getelementptr inbounds nuw i8, ptr %7, i64 %30
  %32 = load i32, ptr %31, align 1, !tbaa !42
  %33 = tail call i32 @llvm.bswap.i32(i32 %32)
  %34 = and i32 %28, 7
  %35 = shl i32 %33, %34
  %36 = lshr i32 %35, 8
  %37 = or i32 %36, %14
  %38 = and i32 %37, 11184810
  %39 = icmp eq i32 %38, 0
  br i1 %39, label %get_interleaved_se_golomb.exit, label %.lr.ph.preheader.i

.lr.ph.preheader.i:                               ; preds = %26
  %40 = or i32 %37, 1
  br label %.lr.ph.i

.lr.ph.i:                                         ; preds = %.lr.ph.i, %.lr.ph.preheader.i
  %.055.i = phi i32 [ %42, %.lr.ph.i ], [ 31, %.lr.ph.preheader.i ]
  %.04754.i = phi i32 [ %45, %.lr.ph.i ], [ %40, %.lr.ph.preheader.i ]
  %41 = shl i32 %.04754.i, %.055.i
  %42 = add nsw i32 %.055.i, -1
  %43 = lshr i32 %41, %42
  %44 = tail call i32 @llvm.fshl.i32(i32 %.04754.i, i32 %.04754.i, i32 2)
  %45 = sub i32 %44, %43
  %46 = icmp sgt i32 %45, -1
  br i1 %46, label %.lr.ph.i, label %._crit_edge.i, !llvm.loop !226

._crit_edge.i:                                    ; preds = %.lr.ph.i
  %reass.sub.i = add i32 %28, 55
  %47 = shl i32 %42, 1
  %48 = sub i32 %reass.sub.i, %47
  %.52.i = tail call i32 @llvm.umin.i32(i32 %6, i32 %48)
  store i32 %.52.i, ptr %3, align 8, !tbaa !51
  %49 = lshr i32 -1, %42
  %50 = and i32 %45, %49
  %51 = add i32 %50, -1
  %52 = and i32 %45, 1
  %53 = sub nsw i32 0, %52
  %54 = xor i32 %51, %53
  %55 = add i32 %54, 1
  %56 = ashr i32 %55, 1
  br label %get_interleaved_se_golomb.exit

get_interleaved_se_golomb.exit:                   ; preds = %16, %26, %._crit_edge.i
  %57 = phi i32 [ %..i, %16 ], [ %.52.i, %._crit_edge.i ], [ %4, %26 ]
  %.046.i = phi i32 [ %25, %16 ], [ %56, %._crit_edge.i ], [ -2147483648, %26 ]
  %58 = trunc i32 %.046.i to i16
  store i16 %58, ptr %1, align 2, !tbaa !149
  %59 = lshr i32 %57, 3
  %60 = zext nneg i32 %59 to i64
  %61 = getelementptr inbounds nuw i8, ptr %7, i64 %60
  %62 = load i32, ptr %61, align 1, !tbaa !42
  %63 = tail call i32 @llvm.bswap.i32(i32 %62)
  %64 = and i32 %57, 7
  %65 = shl i32 %63, %64
  %66 = and i32 %65, -1434451968
  %.not.i4 = icmp eq i32 %66, 0
  br i1 %.not.i4, label %77, label %67

67:                                               ; preds = %get_interleaved_se_golomb.exit
  %68 = lshr i32 %65, 24
  %69 = zext nneg i32 %68 to i64
  %70 = getelementptr inbounds nuw [256 x i8], ptr @ff_interleaved_golomb_vlc_len, i64 0, i64 %69
  %71 = load i8, ptr %70, align 1, !tbaa !42
  %72 = zext i8 %71 to i32
  %73 = add i32 %57, %72
  %..i5 = tail call i32 @llvm.umin.i32(i32 %6, i32 %73)
  store i32 %..i5, ptr %3, align 8, !tbaa !51
  %74 = getelementptr inbounds nuw [256 x i8], ptr @ff_interleaved_se_golomb_vlc_code, i64 0, i64 %69
  %75 = load i8, ptr %74, align 1, !tbaa !42
  %76 = sext i8 %75 to i32
  br label %get_interleaved_se_golomb.exit14

77:                                               ; preds = %get_interleaved_se_golomb.exit
  %78 = add i32 %57, 8
  %79 = tail call i32 @llvm.umin.i32(i32 %6, i32 %78)
  %80 = lshr i32 %79, 3
  %81 = zext nneg i32 %80 to i64
  %82 = getelementptr inbounds nuw i8, ptr %7, i64 %81
  %83 = load i32, ptr %82, align 1, !tbaa !42
  %84 = tail call i32 @llvm.bswap.i32(i32 %83)
  %85 = and i32 %79, 7
  %86 = shl i32 %84, %85
  %87 = lshr i32 %86, 8
  %88 = or i32 %87, %65
  %89 = and i32 %88, 11184810
  %90 = icmp eq i32 %89, 0
  br i1 %90, label %get_interleaved_se_golomb.exit14, label %.lr.ph.preheader.i7

.lr.ph.preheader.i7:                              ; preds = %77
  %91 = or i32 %88, 1
  br label %.lr.ph.i8

.lr.ph.i8:                                        ; preds = %.lr.ph.i8, %.lr.ph.preheader.i7
  %.055.i9 = phi i32 [ %93, %.lr.ph.i8 ], [ 31, %.lr.ph.preheader.i7 ]
  %.04754.i10 = phi i32 [ %96, %.lr.ph.i8 ], [ %91, %.lr.ph.preheader.i7 ]
  %92 = shl i32 %.04754.i10, %.055.i9
  %93 = add nsw i32 %.055.i9, -1
  %94 = lshr i32 %92, %93
  %95 = tail call i32 @llvm.fshl.i32(i32 %.04754.i10, i32 %.04754.i10, i32 2)
  %96 = sub i32 %95, %94
  %97 = icmp sgt i32 %96, -1
  br i1 %97, label %.lr.ph.i8, label %._crit_edge.i11, !llvm.loop !226

._crit_edge.i11:                                  ; preds = %.lr.ph.i8
  %reass.sub.i12 = add i32 %79, 55
  %98 = shl i32 %93, 1
  %99 = sub i32 %reass.sub.i12, %98
  %.52.i13 = tail call i32 @llvm.umin.i32(i32 %6, i32 %99)
  store i32 %.52.i13, ptr %3, align 8, !tbaa !51
  %100 = lshr i32 -1, %93
  %101 = and i32 %96, %100
  %102 = add i32 %101, -1
  %103 = and i32 %96, 1
  %104 = sub nsw i32 0, %103
  %105 = xor i32 %102, %104
  %106 = add i32 %105, 1
  %107 = ashr i32 %106, 1
  br label %get_interleaved_se_golomb.exit14

get_interleaved_se_golomb.exit14:                 ; preds = %67, %77, %._crit_edge.i11
  %.046.i6 = phi i32 [ %76, %67 ], [ %107, %._crit_edge.i11 ], [ -2147483648, %77 ]
  %108 = trunc i32 %.046.i6 to i16
  %109 = getelementptr inbounds nuw i8, ptr %1, i64 2
  store i16 %108, ptr %109, align 2, !tbaa !150
  ret void
}